target datalayout = "e-m:e-p270:32:32-p271:32:32-p272:64:64-i64:64-i128:128-f80:128-n8:16:32:64-S128"
target triple = "x86_64-pc-linux-gnu"

%"class.std::__cxx11::basic_string" = type { %"struct.std::__cxx11::basic_string<char>::_Alloc_hider", i64, %union.anon }
%"struct.std::__cxx11::basic_string<char>::_Alloc_hider" = type { ptr }
%union.anon = type { i64, [8 x i8] }
%class.FunctionInvocationBinary = type { %class.FunctionInvocation, i32, %"class.std::__cxx11::basic_string", %"class.std::__cxx11::basic_string" }
%class.FunctionInvocation = type { ptr, i32, %"class.std::vector.38", i8, i8, ptr }
%"class.std::vector.38" = type { %"struct.std::_Vector_base.39" }
%"struct.std::_Vector_base.39" = type { %"struct.std::_Vector_base<const Expression *, std::allocator<const Expression *>>::_Vector_impl" }
%"struct.std::_Vector_base<const Expression *, std::allocator<const Expression *>>::_Vector_impl" = type { %"struct.std::_Vector_base<const Expression *, std::allocator<const Expression *>>::_Vector_impl_data" }
%"struct.std::_Vector_base<const Expression *, std::allocator<const Expression *>>::_Vector_impl_data" = type { ptr, ptr, ptr }

; Function Attrs: mustprogress nounwind uwtable
define linkonce_odr dso_local noundef nonnull align 8 dereferenceable(8) ptr @_ZNKSt6vectorIPK10ExpressionSaIS2_EEixEm(ptr noundef nonnull align 8 dereferenceable(24) %0, i64 noundef %1) #4 comdat align 2 {
  %3 = alloca ptr, align 8
  %4 = alloca i64, align 8
  store ptr %0, ptr %3, align 8
  store i64 %1, ptr %4, align 8
  %5 = load ptr, ptr %3, align 8
  %6 = getelementptr inbounds %"struct.std::_Vector_base.39", ptr %5, i32 0, i32 0
  %7 = getelementptr inbounds %"struct.std::_Vector_base<const Expression *, std::allocator<const Expression *>>::_Vector_impl_data", ptr %6, i32 0, i32 0
  %8 = load ptr, ptr %7, align 8
  %9 = load i64, ptr %4, align 8
  %10 = getelementptr inbounds ptr, ptr %8, i64 %9
  ret ptr %10
}

; Function Attrs: mustprogress uwtable
define dso_local noundef zeroext i1 @_ZNK24FunctionInvocationBinary6equalsEi(ptr noundef nonnull align 8 dereferenceable(128) %0, i32 noundef %1) unnamed_addr #5 align 2 {
  %3 = alloca i1, align 1
  %4 = alloca ptr, align 8
  %5 = alloca i32, align 4
  store ptr %0, ptr %4, align 8
  store i32 %1, ptr %5, align 4
  %6 = load ptr, ptr %4, align 8
  %7 = load i32, ptr %5, align 4
  %8 = icmp eq i32 %7, 0
  br i1 %8, label %9, label %114

9:                                                ; preds = %2
  %10 = getelementptr inbounds %class.FunctionInvocation, ptr %6, i32 0, i32 2
  %11 = call noundef nonnull align 8 dereferenceable(8) ptr @_ZNKSt6vectorIPK10ExpressionSaIS2_EEixEm(ptr noundef nonnull align 8 dereferenceable(24) %10, i64 noundef 0) #3
  %12 = load ptr, ptr %11, align 8
  %13 = load ptr, ptr %12, align 8
  %14 = getelementptr inbounds ptr, ptr %13, i64 15
  %15 = load ptr, ptr %14, align 8
  %16 = call noundef zeroext i1 %15(ptr noundef nonnull align 8 dereferenceable(24) %12, i32 noundef 0)
  br i1 %16, label %17, label %46

17:                                               ; preds = %9
  %18 = getelementptr inbounds %class.FunctionInvocationBinary, ptr %6, i32 0, i32 1
  %19 = load i32, ptr %18, align 8
  %20 = icmp eq i32 %19, 2
  br i1 %20, label %45, label %21

21:                                               ; preds = %17
  %22 = getelementptr inbounds %class.FunctionInvocationBinary, ptr %6, i32 0, i32 1
  %23 = load i32, ptr %22, align 8
  %24 = icmp eq i32 %23, 3
  br i1 %24, label %45, label %25

25:                                               ; preds = %21
  %26 = getelementptr inbounds %class.FunctionInvocationBinary, ptr %6, i32 0, i32 1
  %27 = load i32, ptr %26, align 8
  %28 = icmp eq i32 %27, 4
  br i1 %28, label %45, label %29

29:                                               ; preds = %25
  %30 = getelementptr inbounds %class.FunctionInvocationBinary, ptr %6, i32 0, i32 1
  %31 = load i32, ptr %30, align 8
  %32 = icmp eq i32 %31, 17
  br i1 %32, label %45, label %33

33:                                               ; preds = %29
  %34 = getelementptr inbounds %class.FunctionInvocationBinary, ptr %6, i32 0, i32 1
  %35 = load i32, ptr %34, align 8
  %36 = icmp eq i32 %35, 16
  br i1 %36, label %45, label %37

37:                                               ; preds = %33
  %38 = getelementptr inbounds %class.FunctionInvocationBinary, ptr %6, i32 0, i32 1
  %39 = load i32, ptr %38, align 8
  %40 = icmp eq i32 %39, 11
  br i1 %40, label %45, label %41

41:                                               ; preds = %37
  %42 = getelementptr inbounds %class.FunctionInvocationBinary, ptr %6, i32 0, i32 1
  %43 = load i32, ptr %42, align 8
  %44 = icmp eq i32 %43, 14
  br i1 %44, label %45, label %46

45:                                               ; preds = %41, %37, %33, %29, %25, %21, %17
  store i1 true, ptr %3, align 1
  br label %115

46:                                               ; preds = %41, %9
  %47 = getelementptr inbounds %class.FunctionInvocation, ptr %6, i32 0, i32 2
  %48 = call noundef nonnull align 8 dereferenceable(8) ptr @_ZNKSt6vectorIPK10ExpressionSaIS2_EEixEm(ptr noundef nonnull align 8 dereferenceable(24) %47, i64 noundef 1) #3
  %49 = load ptr, ptr %48, align 8
  %50 = load ptr, ptr %49, align 8
  %51 = getelementptr inbounds ptr, ptr %50, i64 15
  %52 = load ptr, ptr %51, align 8
  %53 = call noundef zeroext i1 %52(ptr noundef nonnull align 8 dereferenceable(24) %49, i32 noundef 0)
  br i1 %53, label %54, label %67

54:                                               ; preds = %46
  %55 = getelementptr inbounds %class.FunctionInvocationBinary, ptr %6, i32 0, i32 1
  %56 = load i32, ptr %55, align 8
  %57 = icmp eq i32 %56, 2
  br i1 %57, label %66, label %58

58:                                               ; preds = %54
  %59 = getelementptr inbounds %class.FunctionInvocationBinary, ptr %6, i32 0, i32 1
  %60 = load i32, ptr %59, align 8
  %61 = icmp eq i32 %60, 11
  br i1 %61, label %66, label %62

62:                                               ; preds = %58
  %63 = getelementptr inbounds %class.FunctionInvocationBinary, ptr %6, i32 0, i32 1
  %64 = load i32, ptr %63, align 8
  %65 = icmp eq i32 %64, 14
  br i1 %65, label %66, label %67

66:                                               ; preds = %62, %58, %54
  store i1 true, ptr %3, align 1
  br label %115

67:                                               ; preds = %62, %46
  %68 = getelementptr inbounds %class.FunctionInvocation, ptr %6, i32 0, i32 2
  %69 = call noundef nonnull align 8 dereferenceable(8) ptr @_ZNKSt6vectorIPK10ExpressionSaIS2_EEixEm(ptr noundef nonnull align 8 dereferenceable(24) %68, i64 noundef 0) #3
  %70 = load ptr, ptr %69, align 8
  %71 = getelementptr inbounds %class.FunctionInvocation, ptr %6, i32 0, i32 2
  %72 = call noundef nonnull align 8 dereferenceable(8) ptr @_ZNKSt6vectorIPK10ExpressionSaIS2_EEixEm(ptr noundef nonnull align 8 dereferenceable(24) %71, i64 noundef 1) #3
  %73 = load ptr, ptr %72, align 8
  %74 = icmp eq ptr %70, %73
  br i1 %74, label %75, label %92

75:                                               ; preds = %67
  %76 = getelementptr inbounds %class.FunctionInvocationBinary, ptr %6, i32 0, i32 1
  %77 = load i32, ptr %76, align 8
  %78 = icmp eq i32 %77, 1
  br i1 %78, label %91, label %79

79:                                               ; preds = %75
  %80 = getelementptr inbounds %class.FunctionInvocationBinary, ptr %6, i32 0, i32 1
  %81 = load i32, ptr %80, align 8
  %82 = icmp eq i32 %81, 5
  br i1 %82, label %91, label %83

83:                                               ; preds = %79
  %84 = getelementptr inbounds %class.FunctionInvocationBinary, ptr %6, i32 0, i32 1
  %85 = load i32, ptr %84, align 8
  %86 = icmp eq i32 %85, 6
  br i1 %86, label %91, label %87

87:                                               ; preds = %83
  %88 = getelementptr inbounds %class.FunctionInvocationBinary, ptr %6, i32 0, i32 1
  %89 = load i32, ptr %88, align 8
  %90 = icmp eq i32 %89, 10
  br i1 %90, label %91, label %92

91:                                               ; preds = %87, %83, %79, %75
  store i1 true, ptr %3, align 1
  br label %115

92:                                               ; preds = %87, %67
  %93 = getelementptr inbounds %class.FunctionInvocation, ptr %6, i32 0, i32 2
  %94 = call noundef nonnull align 8 dereferenceable(8) ptr @_ZNKSt6vectorIPK10ExpressionSaIS2_EEixEm(ptr noundef nonnull align 8 dereferenceable(24) %93, i64 noundef 1) #3
  %95 = load ptr, ptr %94, align 8
  %96 = load ptr, ptr %95, align 8
  %97 = getelementptr inbounds ptr, ptr %96, i64 15
  %98 = load ptr, ptr %97, align 8
  %99 = call noundef zeroext i1 %98(ptr noundef nonnull align 8 dereferenceable(24) %95, i32 noundef 1)
  br i1 %99, label %108, label %100

100:                                              ; preds = %92
  %101 = getelementptr inbounds %class.FunctionInvocation, ptr %6, i32 0, i32 2
  %102 = call noundef nonnull align 8 dereferenceable(8) ptr @_ZNKSt6vectorIPK10ExpressionSaIS2_EEixEm(ptr noundef nonnull align 8 dereferenceable(24) %101, i64 noundef 1) #3
  %103 = load ptr, ptr %102, align 8
  %104 = load ptr, ptr %103, align 8
  %105 = getelementptr inbounds ptr, ptr %104, i64 15
  %106 = load ptr, ptr %105, align 8
  %107 = call noundef zeroext i1 %106(ptr noundef nonnull align 8 dereferenceable(24) %103, i32 noundef -1)
  br i1 %107, label %108, label %113

108:                                              ; preds = %100, %92
  %109 = getelementptr inbounds %class.FunctionInvocationBinary, ptr %6, i32 0, i32 1
  %110 = load i32, ptr %109, align 8
  %111 = icmp eq i32 %110, 4
  br i1 %111, label %112, label %113

112:                                              ; preds = %108
  store i1 true, ptr %3, align 1
  br label %115

113:                                              ; preds = %108, %100
  br label %114

114:                                              ; preds = %113, %2
  store i1 false, ptr %3, align 1
  br label %115

115:                                              ; preds = %114, %112, %91, %66, %45
  %116 = load i1, ptr %3, align 1
  ret i1 %116
}