; Function Attrs: mustprogress uwtable
define dso_local noundef zeroext i1 @_ZNK24FunctionInvocationBinary6equalsEi(ptr nocapture noundef nonnull readonly align 8 dereferenceable(128) %0, i32 noundef %1) unnamed_addr #4 align 2 {
  %3 = icmp eq i32 %1, 0
  br i1 %3, label %4, label %54

4:                                                ; preds = %2
  %5 = getelementptr inbounds i8, ptr %0, i64 16
  %6 = load ptr, ptr %5, align 8
  %7 = load ptr, ptr %6, align 8
  %8 = load ptr, ptr %7, align 8
  %9 = getelementptr inbounds i8, ptr %8, i64 120
  %10 = load ptr, ptr %9, align 8
  %11 = tail call noundef zeroext i1 %10(ptr noundef nonnull align 8 dereferenceable(24) %7, i32 noundef 0)
  br i1 %11, label %12, label %16

12:                                               ; preds = %4
  %13 = getelementptr inbounds i8, ptr %0, i64 56
  %14 = load i32, ptr %13, align 8
  %switch.tableidx = add i32 %14, -2
  %15 = icmp ult i32 %switch.tableidx, 16
  br i1 %15, label %switch.hole_check, label %16

16:                                               ; preds = %switch.hole_check, %12, %4
  %17 = load ptr, ptr %5, align 8
  %18 = getelementptr inbounds i8, ptr %17, i64 8
  %19 = load ptr, ptr %18, align 8
  %20 = load ptr, ptr %19, align 8
  %21 = getelementptr inbounds i8, ptr %20, i64 120
  %22 = load ptr, ptr %21, align 8
  %23 = tail call noundef zeroext i1 %22(ptr noundef nonnull align 8 dereferenceable(24) %19, i32 noundef 0)
  br i1 %23, label %24, label %27

24:                                               ; preds = %16
  %25 = getelementptr inbounds i8, ptr %0, i64 56
  %26 = load i32, ptr %25, align 8
  switch i32 %26, label %27 [
    i32 2, label %switch.lookup
    i32 11, label %switch.lookup
    i32 14, label %switch.lookup
  ]

27:                                               ; preds = %24, %16
  %28 = load ptr, ptr %5, align 8
  %29 = load ptr, ptr %28, align 8
  %30 = getelementptr inbounds i8, ptr %28, i64 8
  %31 = load ptr, ptr %30, align 8
  %32 = icmp eq ptr %29, %31
  br i1 %32, label %33, label %37

33:                                               ; preds = %27
  %34 = getelementptr inbounds i8, ptr %0, i64 56
  %35 = load i32, ptr %34, align 8
  %switch.tableidx8 = add i32 %35, -1
  %36 = icmp ult i32 %switch.tableidx8, 10
  br i1 %36, label %switch.hole_check9, label %37

37:                                               ; preds = %switch.hole_check9, %33, %27
  %38 = load ptr, ptr %31, align 8
  %39 = getelementptr inbounds i8, ptr %38, i64 120
  %40 = load ptr, ptr %39, align 8
  %41 = tail call noundef zeroext i1 %40(ptr noundef nonnull align 8 dereferenceable(24) %31, i32 noundef 1)
  br i1 %41, label %53, label %42

42:                                               ; preds = %37
  %43 = load ptr, ptr %5, align 8
  %44 = getelementptr inbounds i8, ptr %43, i64 8
  %45 = load ptr, ptr %44, align 8
  %46 = load ptr, ptr %45, align 8
  %47 = getelementptr inbounds i8, ptr %46, i64 120
  %48 = load ptr, ptr %47, align 8
  %49 = tail call noundef zeroext i1 %48(ptr noundef nonnull align 8 dereferenceable(24) %45, i32 noundef -1)
  %50 = getelementptr inbounds i8, ptr %0, i64 56
  %51 = load i32, ptr %50, align 8
  %52 = icmp eq i32 %51, 4
  %or.cond = select i1 %49, i1 %52, i1 false
  br i1 %or.cond, label %switch.lookup, label %54

53:                                               ; preds = %37
  %.old = getelementptr inbounds i8, ptr %0, i64 56
  %.old5 = load i32, ptr %.old, align 8
  %.old6 = icmp eq i32 %.old5, 4
  br i1 %.old6, label %switch.lookup, label %54

54:                                               ; preds = %42, %53, %2
  br label %switch.lookup

switch.hole_check:                                ; preds = %12
  %switch.maskindex = trunc i32 %switch.tableidx to i16
  %switch.shifted = lshr i16 -11769, %switch.maskindex
  %55 = and i16 %switch.shifted, 1
  %switch.lobit.not = icmp eq i16 %55, 0
  br i1 %switch.lobit.not, label %16, label %switch.lookup

switch.hole_check9:                               ; preds = %33
  %switch.maskindex11 = trunc i32 %switch.tableidx8 to i16
  %switch.shifted12 = lshr i16 561, %switch.maskindex11
  %56 = and i16 %switch.shifted12, 1
  %switch.lobit13.not = icmp eq i16 %56, 0
  br i1 %switch.lobit13.not, label %37, label %switch.lookup

switch.lookup:                                    ; preds = %switch.hole_check9, %switch.hole_check, %53, %42, %24, %24, %24, %54
  %.0 = phi i1 [ false, %54 ], [ true, %24 ], [ true, %24 ], [ true, %24 ], [ true, %42 ], [ true, %53 ], [ true, %switch.hole_check ], [ true, %switch.hole_check9 ]
  ret i1 %.0
}